target datalayout = "e-m:e-p270:32:32-p271:32:32-p272:64:64-i64:64-i128:128-f80:128-n8:16:32:64-S128"
target triple = "x86_64-pc-linux-gnu"

%struct.UCaseMap = type { ptr, [32 x i8], i32, i32 }

; Function Attrs: inlinehint mustprogress nounwind uwtable
define internal noundef signext i8 @_ZL9U_SUCCESS10UErrorCode(i32 noundef %0) #2 {
  %2 = alloca i32, align 4
  store i32 %0, ptr %2, align 4, !tbaa !15
  %3 = load i32, ptr %2, align 4, !tbaa !15
  %4 = icmp sle i32 %3, 0
  %5 = zext i1 %4 to i8
  ret i8 %5
}

; Function Attrs: inlinehint mustprogress nounwind uwtable
define internal noundef signext i8 @_ZL9U_FAILURE10UErrorCode(i32 noundef %0) #2 {
  %2 = alloca i32, align 4
  store i32 %0, ptr %2, align 4, !tbaa !15
  %3 = load i32, ptr %2, align 4, !tbaa !15
  %4 = icmp sgt i32 %3, 0
  %5 = zext i1 %4 to i8
  ret i8 %5
}

; Function Attrs: mustprogress uwtable
define void @ucasemap_setLocale_77(ptr noundef %0, ptr noundef %1, ptr noundef %2) #1 {
  %4 = alloca ptr, align 8
  %5 = alloca ptr, align 8
  %6 = alloca ptr, align 8
  %7 = alloca i32, align 4
  store ptr %0, ptr %4, align 8, !tbaa !23
  store ptr %1, ptr %5, align 8, !tbaa !17
  store ptr %2, ptr %6, align 8, !tbaa !22
  %8 = load ptr, ptr %6, align 8, !tbaa !22
  %9 = load i32, ptr %8, align 4, !tbaa !15
  %10 = call noundef signext i8 @_ZL9U_FAILURE10UErrorCode(i32 noundef %9)
  %11 = icmp ne i8 %10, 0
  br i1 %11, label %12, label %13

12:                                               ; preds = %3
  br label %74

13:                                               ; preds = %3
  %14 = load ptr, ptr %5, align 8, !tbaa !17
  %15 = icmp ne ptr %14, null
  br i1 %15, label %16, label %27

16:                                               ; preds = %13
  %17 = load ptr, ptr %5, align 8, !tbaa !17
  %18 = load i8, ptr %17, align 1, !tbaa !30
  %19 = sext i8 %18 to i32
  %20 = icmp eq i32 %19, 0
  br i1 %20, label %21, label %27

21:                                               ; preds = %16
  %22 = load ptr, ptr %4, align 8, !tbaa !23
  %23 = getelementptr inbounds nuw %struct.UCaseMap, ptr %22, i32 0, i32 1
  %24 = getelementptr inbounds [32 x i8], ptr %23, i64 0, i64 0
  store i8 0, ptr %24, align 8, !tbaa !30
  %25 = load ptr, ptr %4, align 8, !tbaa !23
  %26 = getelementptr inbounds nuw %struct.UCaseMap, ptr %25, i32 0, i32 2
  store i32 1, ptr %26, align 8, !tbaa !28
  br label %74

27:                                               ; preds = %16, %13
  call void @llvm.lifetime.start.p0(i64 4, ptr %7) #12
  %28 = load ptr, ptr %5, align 8, !tbaa !17
  %29 = load ptr, ptr %4, align 8, !tbaa !23
  %30 = getelementptr inbounds nuw %struct.UCaseMap, ptr %29, i32 0, i32 1
  %31 = getelementptr inbounds [32 x i8], ptr %30, i64 0, i64 0
  %32 = load ptr, ptr %6, align 8, !tbaa !22
  %33 = call i32 @uloc_getName_77(ptr noundef %28, ptr noundef %31, i32 noundef 32, ptr noundef %32)
  store i32 %33, ptr %7, align 4, !tbaa !14
  %34 = load ptr, ptr %6, align 8, !tbaa !22
  %35 = load i32, ptr %34, align 4, !tbaa !15
  %36 = icmp eq i32 %35, 15
  br i1 %36, label %41, label %37

37:                                               ; preds = %27
  %38 = load i32, ptr %7, align 4, !tbaa !14
  %39 = sext i32 %38 to i64
  %40 = icmp eq i64 %39, 32
  br i1 %40, label %41, label %49

41:                                               ; preds = %37, %27
  %42 = load ptr, ptr %6, align 8, !tbaa !22
  store i32 0, ptr %42, align 4, !tbaa !15
  %43 = load ptr, ptr %5, align 8, !tbaa !17
  %44 = load ptr, ptr %4, align 8, !tbaa !23
  %45 = getelementptr inbounds nuw %struct.UCaseMap, ptr %44, i32 0, i32 1
  %46 = getelementptr inbounds [32 x i8], ptr %45, i64 0, i64 0
  %47 = load ptr, ptr %6, align 8, !tbaa !22
  %48 = call i32 @uloc_getLanguage_77(ptr noundef %43, ptr noundef %46, i32 noundef 32, ptr noundef %47)
  store i32 %48, ptr %7, align 4, !tbaa !14
  br label %49

49:                                               ; preds = %41, %37
  %50 = load i32, ptr %7, align 4, !tbaa !14
  %51 = sext i32 %50 to i64
  %52 = icmp eq i64 %51, 32
  br i1 %52, label %53, label %55

53:                                               ; preds = %49
  %54 = load ptr, ptr %6, align 8, !tbaa !22
  store i32 15, ptr %54, align 4, !tbaa !15
  br label %55

55:                                               ; preds = %53, %49
  %56 = load ptr, ptr %6, align 8, !tbaa !22
  %57 = load i32, ptr %56, align 4, !tbaa !15
  %58 = call noundef signext i8 @_ZL9U_SUCCESS10UErrorCode(i32 noundef %57)
  %59 = icmp ne i8 %58, 0
  br i1 %59, label %60, label %67

60:                                               ; preds = %55
  %61 = load ptr, ptr %4, align 8, !tbaa !23
  %62 = getelementptr inbounds nuw %struct.UCaseMap, ptr %61, i32 0, i32 1
  %63 = getelementptr inbounds [32 x i8], ptr %62, i64 0, i64 0
  %64 = call i32 @ucase_getCaseLocale_77(ptr noundef %63)
  %65 = load ptr, ptr %4, align 8, !tbaa !23
  %66 = getelementptr inbounds nuw %struct.UCaseMap, ptr %65, i32 0, i32 2
  store i32 %64, ptr %66, align 8, !tbaa !28
  br label %73

67:                                               ; preds = %55
  %68 = load ptr, ptr %4, align 8, !tbaa !23
  %69 = getelementptr inbounds nuw %struct.UCaseMap, ptr %68, i32 0, i32 1
  %70 = getelementptr inbounds [32 x i8], ptr %69, i64 0, i64 0
  store i8 0, ptr %70, align 8, !tbaa !30
  %71 = load ptr, ptr %4, align 8, !tbaa !23
  %72 = getelementptr inbounds nuw %struct.UCaseMap, ptr %71, i32 0, i32 2
  store i32 1, ptr %72, align 8, !tbaa !28
  br label %73

73:                                               ; preds = %67, %60
  call void @llvm.lifetime.end.p0(i64 4, ptr %7) #12
  br label %74

74:                                               ; preds = %73, %21, %12
  ret void
}