; Function Attrs: mustprogress uwtable
define void @ucasemap_setLocale_77(ptr noundef %0, ptr noundef %1, ptr noundef %2) local_unnamed_addr #1 {
  %4 = load i32, ptr %2, align 4, !tbaa !13
  %5 = icmp slt i32 %4, 1
  br i1 %5, label %6, label %27

6:                                                ; preds = %3
  %.not23 = icmp eq ptr %1, null
  br i1 %.not23, label %12, label %7

7:                                                ; preds = %6
  %8 = load i8, ptr %1, align 1, !tbaa !20
  %9 = icmp eq i8 %8, 0
  br i1 %9, label %10, label %12

10:                                               ; preds = %7
  %11 = getelementptr inbounds nuw i8, ptr %0, i64 8
  store i8 0, ptr %11, align 8, !tbaa !20
  br label %.sink.split

12:                                               ; preds = %7, %6
  %13 = getelementptr inbounds nuw i8, ptr %0, i64 8
  %14 = tail call i32 @uloc_getName_77(ptr noundef %1, ptr noundef nonnull %13, i32 noundef 32, ptr noundef nonnull %2)
  %15 = load i32, ptr %2, align 4, !tbaa !13
  %16 = icmp eq i32 %15, 15
  %17 = icmp eq i32 %14, 32
  %or.cond = select i1 %16, i1 true, i1 %17
  br i1 %or.cond, label %18, label %.critedge

18:                                               ; preds = %12
  store i32 0, ptr %2, align 4, !tbaa !13
  %19 = tail call i32 @uloc_getLanguage_77(ptr noundef %1, ptr noundef nonnull %13, i32 noundef 32, ptr noundef nonnull %2)
  %20 = icmp eq i32 %19, 32
  br i1 %20, label %.critedge.thread, label %..critedge_crit_edge

..critedge_crit_edge:                             ; preds = %18
  %.pre = load i32, ptr %2, align 4, !tbaa !13
  br label %.critedge

.critedge.thread:                                 ; preds = %18
  store i32 15, ptr %2, align 4, !tbaa !13
  br label %25

.critedge:                                        ; preds = %..critedge_crit_edge, %12
  %21 = phi i32 [ %.pre, %..critedge_crit_edge ], [ %15, %12 ]
  %22 = icmp sgt i32 %21, 0
  br i1 %22, label %25, label %23

23:                                               ; preds = %.critedge
  %24 = tail call i32 @ucase_getCaseLocale_77(ptr noundef nonnull %13)
  br label %.sink.split

25:                                               ; preds = %.critedge.thread, %.critedge
  store i8 0, ptr %13, align 8, !tbaa !20
  br label %.sink.split

.sink.split:                                      ; preds = %10, %25, %23
  %.sink = phi i32 [ %24, %23 ], [ 1, %25 ], [ 1, %10 ]
  %26 = getelementptr inbounds nuw i8, ptr %0, i64 40
  store i32 %.sink, ptr %26, align 8, !tbaa !18
  br label %27

27:                                               ; preds = %.sink.split, %3
  ret void
}